target datalayout = "e-m:e-p270:32:32-p271:32:32-p272:64:64-i64:64-i128:128-f80:128-n8:16:32:64-S128"
target triple = "x86_64-pc-linux-gnu"

%struct.jpeg_decompress_struct = type { ptr, ptr, ptr, ptr, i32, i32, ptr, i32, i32, i32, i32, i32, i32, i32, double, i32, i32, i32, i32, i32, i32, i32, i32, i32, i32, i32, i32, i32, i32, i32, i32, i32, i32, ptr, i32, i32, i32, i32, i32, ptr, [4 x ptr], [4 x ptr], [4 x ptr], i32, ptr, i32, i32, [16 x i8], [16 x i8], [16 x i8], i32, i32, i8, i8, i8, i16, i16, i32, i8, i32, ptr, i32, i32, i32, i32, ptr, i32, [4 x ptr], i32, i32, i32, [10 x i32], i32, i32, i32, i32, i32, ptr, ptr, ptr, ptr, ptr, ptr, ptr, ptr, ptr, ptr, ptr }
%struct.jpeg_error_mgr = type { ptr, ptr, ptr, ptr, ptr, i32, %union.anon, i32, i64, ptr, i32, ptr, i32, i32 }
%union.anon = type { [8 x i32], [48 x i8] }
%struct.jpeg_memory_mgr = type { ptr, ptr, ptr, ptr, ptr, ptr, ptr, ptr, ptr, ptr, ptr, i64, i64 }
%struct.JHUFF_TBL = type { [17 x i8], [256 x i8], i32 }
%struct.jpeg_entropy_decoder = type { ptr, ptr, ptr, ptr, i32 }
%struct.huff_entropy_decoder = type { %struct.jpeg_entropy_decoder, %struct.bitread_perm_state, %struct.savable_state, i32, [4 x ptr], [4 x ptr], [10 x ptr], [10 x ptr], [10 x i32], [10 x i32] }
%struct.bitread_perm_state = type { i64, i32 }
%struct.savable_state = type { [4 x i32] }
%struct.jpeg_common_struct = type { ptr, ptr, ptr, ptr, i32, i32 }
%struct.jpeg_compress_struct = type { ptr, ptr, ptr, ptr, i32, i32, ptr, i32, i32, i32, i32, double, i32, i32, i32, ptr, [4 x ptr], [4 x ptr], [4 x ptr], [16 x i8], [16 x i8], [16 x i8], i32, ptr, i32, i32, i32, i32, i32, i32, i32, i32, i32, i8, i8, i8, i16, i16, i32, i32, i32, i32, i32, i32, i32, [4 x ptr], i32, i32, i32, [10 x i32], i32, i32, i32, i32, ptr, ptr, ptr, ptr, ptr, ptr, ptr, ptr, ptr, ptr, i32 }

@std_huff_tables.bits_dc_luminance = internal constant [17 x i8] c"\00\00\01\05\01\01\01\01\01\01\00\00\00\00\00\00\00", align 16
@std_huff_tables.val_dc_luminance = internal constant [12 x i8] c"\00\01\02\03\04\05\06\07\08\09\0A\0B", align 1
@std_huff_tables.bits_dc_chrominance = internal constant [17 x i8] c"\00\00\03\01\01\01\01\01\01\01\01\01\00\00\00\00\00", align 16
@std_huff_tables.val_dc_chrominance = internal constant [12 x i8] c"\00\01\02\03\04\05\06\07\08\09\0A\0B", align 1
@std_huff_tables.bits_ac_luminance = internal constant [17 x i8] c"\00\00\02\01\03\03\02\04\03\05\05\04\04\00\00\01}", align 16
@std_huff_tables.bits_ac_chrominance = internal constant [17 x i8] c"\00\00\02\01\02\04\04\03\04\07\05\04\04\00\01\02w", align 16

; Function Attrs: nounwind uwtable
define internal void @add_huff_table(ptr noundef %0, ptr noundef %1, ptr noundef %2, ptr noundef %3) #0 {
  %5 = alloca ptr, align 8
  %6 = alloca ptr, align 8
  %7 = alloca ptr, align 8
  %8 = alloca ptr, align 8
  %9 = alloca i32, align 4
  %10 = alloca i32, align 4
  store ptr %0, ptr %5, align 8
  store ptr %1, ptr %6, align 8
  store ptr %2, ptr %7, align 8
  store ptr %3, ptr %8, align 8
  %11 = load ptr, ptr %6, align 8
  %12 = load ptr, ptr %11, align 8
  %13 = icmp eq ptr %12, null
  br i1 %13, label %14, label %18

14:                                               ; preds = %4
  %15 = load ptr, ptr %5, align 8
  %16 = call ptr @jpeg_alloc_huff_table(ptr noundef %15)
  %17 = load ptr, ptr %6, align 8
  store ptr %16, ptr %17, align 8
  br label %19

18:                                               ; preds = %4
  br label %79

19:                                               ; preds = %14
  %20 = load ptr, ptr %6, align 8
  %21 = load ptr, ptr %20, align 8
  %22 = getelementptr inbounds %struct.JHUFF_TBL, ptr %21, i32 0, i32 0
  %23 = getelementptr inbounds [17 x i8], ptr %22, i64 0, i64 0
  %24 = load ptr, ptr %7, align 8
  call void @llvm.memcpy.p0.p0.i64(ptr align 4 %23, ptr align 1 %24, i64 17, i1 false)
  store i32 0, ptr %9, align 4
  store i32 1, ptr %10, align 4
  br label %25

25:                                               ; preds = %37, %19
  %26 = load i32, ptr %10, align 4
  %27 = icmp sle i32 %26, 16
  br i1 %27, label %28, label %40

28:                                               ; preds = %25
  %29 = load ptr, ptr %7, align 8
  %30 = load i32, ptr %10, align 4
  %31 = sext i32 %30 to i64
  %32 = getelementptr inbounds i8, ptr %29, i64 %31
  %33 = load i8, ptr %32, align 1
  %34 = zext i8 %33 to i32
  %35 = load i32, ptr %9, align 4
  %36 = add nsw i32 %35, %34
  store i32 %36, ptr %9, align 4
  br label %37

37:                                               ; preds = %28
  %38 = load i32, ptr %10, align 4
  %39 = add nsw i32 %38, 1
  store i32 %39, ptr %10, align 4
  br label %25, !llvm.loop !21

40:                                               ; preds = %25
  %41 = load i32, ptr %9, align 4
  %42 = icmp slt i32 %41, 1
  br i1 %42, label %46, label %43

43:                                               ; preds = %40
  %44 = load i32, ptr %9, align 4
  %45 = icmp sgt i32 %44, 256
  br i1 %45, label %46, label %57

46:                                               ; preds = %43, %40
  %47 = load ptr, ptr %5, align 8
  %48 = getelementptr inbounds %struct.jpeg_common_struct, ptr %47, i32 0, i32 0
  %49 = load ptr, ptr %48, align 8
  %50 = getelementptr inbounds %struct.jpeg_error_mgr, ptr %49, i32 0, i32 5
  store i32 8, ptr %50, align 8
  %51 = load ptr, ptr %5, align 8
  %52 = getelementptr inbounds %struct.jpeg_common_struct, ptr %51, i32 0, i32 0
  %53 = load ptr, ptr %52, align 8
  %54 = getelementptr inbounds %struct.jpeg_error_mgr, ptr %53, i32 0, i32 0
  %55 = load ptr, ptr %54, align 8
  %56 = load ptr, ptr %5, align 8
  call void %55(ptr noundef %56)
  br label %57

57:                                               ; preds = %46, %43
  %58 = load ptr, ptr %6, align 8
  %59 = load ptr, ptr %58, align 8
  %60 = getelementptr inbounds %struct.JHUFF_TBL, ptr %59, i32 0, i32 1
  %61 = getelementptr inbounds [256 x i8], ptr %60, i64 0, i64 0
  %62 = load ptr, ptr %8, align 8
  %63 = load i32, ptr %9, align 4
  %64 = sext i32 %63 to i64
  %65 = mul i64 %64, 1
  call void @llvm.memcpy.p0.p0.i64(ptr align 1 %61, ptr align 1 %62, i64 %65, i1 false)
  %66 = load ptr, ptr %6, align 8
  %67 = load ptr, ptr %66, align 8
  %68 = getelementptr inbounds %struct.JHUFF_TBL, ptr %67, i32 0, i32 1
  %69 = load i32, ptr %9, align 4
  %70 = sext i32 %69 to i64
  %71 = getelementptr inbounds [256 x i8], ptr %68, i64 0, i64 %70
  %72 = load i32, ptr %9, align 4
  %73 = sub nsw i32 256, %72
  %74 = sext i32 %73 to i64
  %75 = mul i64 %74, 1
  call void @llvm.memset.p0.i64(ptr align 1 %71, i8 0, i64 %75, i1 false)
  %76 = load ptr, ptr %6, align 8
  %77 = load ptr, ptr %76, align 8
  %78 = getelementptr inbounds %struct.JHUFF_TBL, ptr %77, i32 0, i32 2
  store i32 0, ptr %78, align 4
  br label %79

79:                                               ; preds = %57, %18
  ret void
}

; Function Attrs: nounwind uwtable
define internal void @std_huff_tables(ptr noundef %0) #0 {
  %2 = alloca ptr, align 8
  %3 = alloca ptr, align 8
  %4 = alloca ptr, align 8
  store ptr %0, ptr %2, align 8
  %5 = load ptr, ptr %2, align 8
  %6 = getelementptr inbounds %struct.jpeg_common_struct, ptr %5, i32 0, i32 4
  %7 = load i32, ptr %6, align 8
  %8 = icmp ne i32 %7, 0
  br i1 %8, label %9, label %16

9:                                                ; preds = %1
  %10 = load ptr, ptr %2, align 8
  %11 = getelementptr inbounds %struct.jpeg_decompress_struct, ptr %10, i32 0, i32 41
  %12 = getelementptr inbounds [4 x ptr], ptr %11, i64 0, i64 0
  store ptr %12, ptr %3, align 8
  %13 = load ptr, ptr %2, align 8
  %14 = getelementptr inbounds %struct.jpeg_decompress_struct, ptr %13, i32 0, i32 42
  %15 = getelementptr inbounds [4 x ptr], ptr %14, i64 0, i64 0
  store ptr %15, ptr %4, align 8
  br label %23

16:                                               ; preds = %1
  %17 = load ptr, ptr %2, align 8
  %18 = getelementptr inbounds %struct.jpeg_compress_struct, ptr %17, i32 0, i32 17
  %19 = getelementptr inbounds [4 x ptr], ptr %18, i64 0, i64 0
  store ptr %19, ptr %3, align 8
  %20 = load ptr, ptr %2, align 8
  %21 = getelementptr inbounds %struct.jpeg_compress_struct, ptr %20, i32 0, i32 18
  %22 = getelementptr inbounds [4 x ptr], ptr %21, i64 0, i64 0
  store ptr %22, ptr %4, align 8
  br label %23

23:                                               ; preds = %16, %9
  %24 = load ptr, ptr %2, align 8
  %25 = load ptr, ptr %3, align 8
  %26 = getelementptr inbounds ptr, ptr %25, i64 0
  call void @add_huff_table(ptr noundef %24, ptr noundef %26, ptr noundef @std_huff_tables.bits_dc_luminance, ptr noundef @std_huff_tables.val_dc_luminance)
  %27 = load ptr, ptr %2, align 8
  %28 = load ptr, ptr %4, align 8
  %29 = getelementptr inbounds ptr, ptr %28, i64 0
  call void @add_huff_table(ptr noundef %27, ptr noundef %29, ptr noundef @std_huff_tables.bits_ac_luminance, ptr noundef @std_huff_tables.val_ac_luminance)
  %30 = load ptr, ptr %2, align 8
  %31 = load ptr, ptr %3, align 8
  %32 = getelementptr inbounds ptr, ptr %31, i64 1
  call void @add_huff_table(ptr noundef %30, ptr noundef %32, ptr noundef @std_huff_tables.bits_dc_chrominance, ptr noundef @std_huff_tables.val_dc_chrominance)
  %33 = load ptr, ptr %2, align 8
  %34 = load ptr, ptr %4, align 8
  %35 = getelementptr inbounds ptr, ptr %34, i64 1
  call void @add_huff_table(ptr noundef %33, ptr noundef %35, ptr noundef @std_huff_tables.bits_ac_chrominance, ptr noundef @std_huff_tables.val_ac_chrominance)
  ret void
}

; Function Attrs: nounwind uwtable
define void @jinit_huff_decoder(ptr noundef %0) #0 {
  %2 = alloca ptr, align 8
  %3 = alloca ptr, align 8
  %4 = alloca i32, align 4
  store ptr %0, ptr %2, align 8
  %5 = load ptr, ptr %2, align 8
  call void @std_huff_tables(ptr noundef %5)
  %6 = load ptr, ptr %2, align 8
  %7 = getelementptr inbounds %struct.jpeg_decompress_struct, ptr %6, i32 0, i32 1
  %8 = load ptr, ptr %7, align 8
  %9 = getelementptr inbounds %struct.jpeg_memory_mgr, ptr %8, i32 0, i32 0
  %10 = load ptr, ptr %9, align 8
  %11 = load ptr, ptr %2, align 8
  %12 = call ptr %10(ptr noundef %11, i32 noundef 1, i64 noundef 384)
  store ptr %12, ptr %3, align 8
  %13 = load ptr, ptr %3, align 8
  %14 = load ptr, ptr %2, align 8
  %15 = getelementptr inbounds %struct.jpeg_decompress_struct, ptr %14, i32 0, i32 83
  store ptr %13, ptr %15, align 8
  %16 = load ptr, ptr %3, align 8
  %17 = getelementptr inbounds %struct.huff_entropy_decoder, ptr %16, i32 0, i32 0
  %18 = getelementptr inbounds %struct.jpeg_entropy_decoder, ptr %17, i32 0, i32 0
  store ptr @start_pass_huff_decoder, ptr %18, align 8
  %19 = load ptr, ptr %3, align 8
  %20 = getelementptr inbounds %struct.huff_entropy_decoder, ptr %19, i32 0, i32 0
  %21 = getelementptr inbounds %struct.jpeg_entropy_decoder, ptr %20, i32 0, i32 1
  store ptr @decode_mcu, ptr %21, align 8
  store i32 0, ptr %4, align 4
  br label %22

22:                                               ; preds = %36, %1
  %23 = load i32, ptr %4, align 4
  %24 = icmp slt i32 %23, 4
  br i1 %24, label %25, label %39

25:                                               ; preds = %22
  %26 = load ptr, ptr %3, align 8
  %27 = getelementptr inbounds %struct.huff_entropy_decoder, ptr %26, i32 0, i32 5
  %28 = load i32, ptr %4, align 4
  %29 = sext i32 %28 to i64
  %30 = getelementptr inbounds [4 x ptr], ptr %27, i64 0, i64 %29
  store ptr null, ptr %30, align 8
  %31 = load ptr, ptr %3, align 8
  %32 = getelementptr inbounds %struct.huff_entropy_decoder, ptr %31, i32 0, i32 4
  %33 = load i32, ptr %4, align 4
  %34 = sext i32 %33 to i64
  %35 = getelementptr inbounds [4 x ptr], ptr %32, i64 0, i64 %34
  store ptr null, ptr %35, align 8
  br label %36

36:                                               ; preds = %25
  %37 = load i32, ptr %4, align 4
  %38 = add nsw i32 %37, 1
  store i32 %38, ptr %4, align 4
  br label %22, !llvm.loop !18

39:                                               ; preds = %22
  ret void
}