; Function Attrs: nounwind uwtable
define void @jinit_huff_decoder(ptr noundef %0) local_unnamed_addr #0 {
  %2 = getelementptr inbounds i8, ptr %0, i64 32
  %3 = load i32, ptr %2, align 8
  %.not.i = icmp eq i32 %3, 0
  %.013.v.i = select i1 %.not.i, i64 128, i64 232
  %.013.i = getelementptr inbounds i8, ptr %0, i64 %.013.v.i
  %.0.v.i = select i1 %.not.i, i64 160, i64 264
  %.0.i = getelementptr inbounds i8, ptr %0, i64 %.0.v.i
  %4 = load ptr, ptr %.013.i, align 8
  %5 = icmp eq ptr %4, null
  br i1 %5, label %6, label %add_huff_table.exit.i

6:                                                ; preds = %1
  %7 = tail call ptr @jpeg_alloc_huff_table(ptr noundef nonnull %0) #5
  store ptr %7, ptr %.013.i, align 8
  tail call void @llvm.memcpy.p0.p0.i64(ptr noundef nonnull align 4 dereferenceable(17) %7, ptr noundef nonnull readonly align 16 dereferenceable(17) @std_huff_tables.bits_dc_luminance, i64 17, i1 false)
  %.pre.i = load ptr, ptr %.013.i, align 8
  %8 = getelementptr inbounds i8, ptr %.pre.i, i64 17
  tail call void @llvm.memcpy.p0.p0.i64(ptr noundef nonnull align 1 dereferenceable(12) %8, ptr noundef nonnull readonly align 1 dereferenceable(12) @std_huff_tables.val_dc_chrominance, i64 12, i1 false)
  %9 = load ptr, ptr %.013.i, align 8
  %10 = getelementptr inbounds i8, ptr %9, i64 29
  tail call void @llvm.memset.p0.i64(ptr noundef nonnull align 1 dereferenceable(244) %10, i8 0, i64 244, i1 false)
  %11 = load ptr, ptr %.013.i, align 8
  %12 = getelementptr inbounds i8, ptr %11, i64 276
  store i32 0, ptr %12, align 4
  br label %add_huff_table.exit.i

add_huff_table.exit.i:                            ; preds = %6, %1
  %13 = load ptr, ptr %.0.i, align 8
  %14 = icmp eq ptr %13, null
  br i1 %14, label %15, label %add_huff_table.exit19.i

15:                                               ; preds = %add_huff_table.exit.i
  %16 = tail call ptr @jpeg_alloc_huff_table(ptr noundef nonnull %0) #5
  store ptr %16, ptr %.0.i, align 8
  tail call void @llvm.memcpy.p0.p0.i64(ptr noundef nonnull align 4 dereferenceable(17) %16, ptr noundef nonnull readonly align 16 dereferenceable(17) @std_huff_tables.bits_ac_luminance, i64 17, i1 false)
  %.pre39.i = load ptr, ptr %.0.i, align 8
  %17 = getelementptr inbounds i8, ptr %.pre39.i, i64 17
  tail call void @llvm.memcpy.p0.p0.i64(ptr noundef nonnull align 1 dereferenceable(162) %17, ptr noundef nonnull readonly align 16 dereferenceable(162) @std_huff_tables.val_ac_luminance, i64 162, i1 false)
  %18 = load ptr, ptr %.0.i, align 8
  %19 = getelementptr inbounds i8, ptr %18, i64 179
  tail call void @llvm.memset.p0.i64(ptr noundef nonnull align 1 dereferenceable(94) %19, i8 0, i64 94, i1 false)
  %20 = load ptr, ptr %.0.i, align 8
  %21 = getelementptr inbounds i8, ptr %20, i64 276
  store i32 0, ptr %21, align 4
  br label %add_huff_table.exit19.i

add_huff_table.exit19.i:                          ; preds = %15, %add_huff_table.exit.i
  %22 = getelementptr inbounds i8, ptr %.013.i, i64 8
  %23 = load ptr, ptr %22, align 8
  %24 = icmp eq ptr %23, null
  br i1 %24, label %25, label %add_huff_table.exit25.i

25:                                               ; preds = %add_huff_table.exit19.i
  %26 = tail call ptr @jpeg_alloc_huff_table(ptr noundef nonnull %0) #5
  store ptr %26, ptr %22, align 8
  tail call void @llvm.memcpy.p0.p0.i64(ptr noundef nonnull align 4 dereferenceable(17) %26, ptr noundef nonnull readonly align 16 dereferenceable(17) @std_huff_tables.bits_dc_chrominance, i64 17, i1 false)
  %.pre41.i = load ptr, ptr %22, align 8
  %27 = getelementptr inbounds i8, ptr %.pre41.i, i64 17
  tail call void @llvm.memcpy.p0.p0.i64(ptr noundef nonnull align 1 dereferenceable(12) %27, ptr noundef nonnull readonly align 1 dereferenceable(12) @std_huff_tables.val_dc_chrominance, i64 12, i1 false)
  %28 = load ptr, ptr %22, align 8
  %29 = getelementptr inbounds i8, ptr %28, i64 29
  tail call void @llvm.memset.p0.i64(ptr noundef nonnull align 1 dereferenceable(244) %29, i8 0, i64 244, i1 false)
  %30 = load ptr, ptr %22, align 8
  %31 = getelementptr inbounds i8, ptr %30, i64 276
  store i32 0, ptr %31, align 4
  br label %add_huff_table.exit25.i

add_huff_table.exit25.i:                          ; preds = %25, %add_huff_table.exit19.i
  %32 = getelementptr inbounds i8, ptr %.0.i, i64 8
  %33 = load ptr, ptr %32, align 8
  %34 = icmp eq ptr %33, null
  br i1 %34, label %35, label %std_huff_tables.exit

35:                                               ; preds = %add_huff_table.exit25.i
  %36 = tail call ptr @jpeg_alloc_huff_table(ptr noundef nonnull %0) #5
  store ptr %36, ptr %32, align 8
  tail call void @llvm.memcpy.p0.p0.i64(ptr noundef nonnull align 4 dereferenceable(17) %36, ptr noundef nonnull readonly align 16 dereferenceable(17) @std_huff_tables.bits_ac_chrominance, i64 17, i1 false)
  %.pre43.i = load ptr, ptr %32, align 8
  %37 = getelementptr inbounds i8, ptr %.pre43.i, i64 17
  tail call void @llvm.memcpy.p0.p0.i64(ptr noundef nonnull align 1 dereferenceable(162) %37, ptr noundef nonnull readonly align 16 dereferenceable(162) @std_huff_tables.val_ac_chrominance, i64 162, i1 false)
  %38 = load ptr, ptr %32, align 8
  %39 = getelementptr inbounds i8, ptr %38, i64 179
  tail call void @llvm.memset.p0.i64(ptr noundef nonnull align 1 dereferenceable(94) %39, i8 0, i64 94, i1 false)
  %40 = load ptr, ptr %32, align 8
  %41 = getelementptr inbounds i8, ptr %40, i64 276
  store i32 0, ptr %41, align 4
  br label %std_huff_tables.exit

std_huff_tables.exit:                             ; preds = %add_huff_table.exit25.i, %35
  %42 = getelementptr inbounds i8, ptr %0, i64 8
  %43 = load ptr, ptr %42, align 8
  %44 = load ptr, ptr %43, align 8
  %45 = tail call ptr %44(ptr noundef nonnull %0, i32 noundef 1, i64 noundef 384) #5
  %46 = getelementptr inbounds i8, ptr %0, i64 592
  store ptr %45, ptr %46, align 8
  store ptr @start_pass_huff_decoder, ptr %45, align 8
  %47 = getelementptr inbounds i8, ptr %45, i64 8
  store ptr @decode_mcu, ptr %47, align 8
  %48 = getelementptr inbounds i8, ptr %45, i64 112
  %49 = getelementptr inbounds i8, ptr %45, i64 80
  tail call void @llvm.memset.p0.i64(ptr noundef nonnull align 8 dereferenceable(32) %49, i8 0, i64 32, i1 false)
  br label %50

50:                                               ; preds = %std_huff_tables.exit, %50
  %indvars.iv = phi i64 [ 0, %std_huff_tables.exit ], [ %indvars.iv.next, %50 ]
  %51 = getelementptr inbounds [4 x ptr], ptr %48, i64 0, i64 %indvars.iv
  store ptr null, ptr %51, align 8
  %indvars.iv.next = add nuw nsw i64 %indvars.iv, 1
  %exitcond.not = icmp eq i64 %indvars.iv.next, 4
  br i1 %exitcond.not, label %52, label %50, !llvm.loop !16

52:                                               ; preds = %50
  ret void
}